MPASM 5.55  /USERS/ELIFRIEDMAN/DROPBOX/CPU-M   5-15-2014  3:48:58         PAGE  1


LOC  OBJECT CODE     LINE SOURCE TEXT
  VALUE

                      00001     LIST        P=PIC16F877A
                      00002     include <p16F877A.inc>
                      00001         LIST
                      00002 
                      00003 ;==========================================================================
                      00004 ;  MPASM PIC16F877A processor include
                      00005 ; 
                      00006 ;  (c) Copyright 1999-2014 Microchip Technology, All rights reserved
                      00007 ;==========================================================================
                      00008 
                      00566         LIST
                      00003     include "constants.inc"
                      00001 
                      00002 ;----- Instruction Registers -----------------------------------------------------
  0000010D            00003 PC equ EEADR ; Program counter (Bank2)
  00000121            00004 INSTR1 equ 0x121 ; Memory location of MSB of instruction (Bank2)
  00000122            00005 INSTR2 equ 0x122 ; Memory location of LSB of instruction (Bank2)
  00000123            00006 writeVal    equ 0x123
  00000124            00007 ALUcmd     equ 0x124
                      00008 
                      00009 ;---- Constants -----------------------------------------------------
  00000005            00010 ZZ equ H'5'
  00000006            00011 CC equ H'6'
                      00012 
                      00013 ;---- Instructions -----------------------------------------------------
  00000000            00014 NOP2 equ B'00000000'; 0000 xxxx xxxx xxxx
  00000010            00015 ADD equ B'00010000' ; 0001 aaaa bbbb cccc    Z,C     Ra = Rb + Rc
  00000020            00016 SUB equ B'00100000' ; 0010 aaaa bbbb cccc    Z,C     Ra = Rb ­ Rc
  00000030            00017 AND equ B'00110000' ; 0011 aaaa bbbb cccc    Z,C     Ra = Rb & Rc
  00000040            00018 IOR equ B'01000000' ; 0100 aaaa bbbb cccc    Z,C     Ra = Rb | Rc
  00000050            00019 XOR equ B'01010000' ; 0101 aaaa bbbb cccc    Z,C     Ra = Rb ^ Rc
  00000070            00020 NOT equ B'01110000' ; 0111 aaaa xxxx bbbb    Z       Ra = ~Rb
                      00021 
                      00022 
  00000060            00023 RRL equ B'01100000' ; 0110 aaaa 0xxx bbbb    C       Ra = Rb rotated left by 1 thru C
  00000060            00024 RRR equ B'01100000' ; 0110 aaaa 1xxx bbbb    C       Ra = Rb rotated right by 1 thru C
                      00025 
  00000080            00026 MOV equ B'10000000' ; 1000 aaaa 1xxx bbbb    Z       Ra = Rb
  00000080            00027 MOV equ B'10000000' ; 1000 aaaa 0xxx kkkk    Z       Ra = k
  00000090            00028 LOD equ B'10010000' ; 1001 aaaa 0kkk kkkk    Z       Ra = [k]
  00000090            00029 LOD equ B'10010000' ; 1001 aaaa 1xxx bbbb    Z       Ra = [Rb(3:1) Rb+1]
  000000A0            00030 STO equ B'10100000' ; 1010 aaaa 0kkk kkkk    Z       [k] = Ra
  000000A0            00031 STO equ B'10100000' ; 1010 aaaa 1xxx bbbb    Z       [Ra(3:1) Ra+1] = Rb
  000000B0            00032 TSC equ B'10110000' ; 1011 aaaa 0xxx xxbb    -       if Ra(b) = 0, PC=PC+2
  000000B0            00033 TSS equ B'10110000' ; 1011 aaaa 1xxx xxbb    -       if Ra(b) = 1, PC=PC+2
  000000C0            00034 JMP equ B'11000000' ; 1100 0kkk kkkk kkkk    -       PC=k<<1 // since instructions are two bytes
  000000C0            00035 JMP equ B'11000000' ; 1100 1xxx xxxx aaaa    -       PC=[Ra(3:1) Ra+1]<<1
  000000D0            00036 JSR equ B'11010000' ; 1101 0kkk kkkk kkkk    -       PC+2->STACK_TOP; PC=k<<1
  000000D0            00037 JSR equ B'11010000' ; 1101 1xxx xxxx aaaa    -       PC+2->STACK_TOP; PC=[Ra(3:1) Ra+1]<<1
  000000E0            00038 RET equ B'11100000' ; 1110 xxxx xxxx xxxx    -       PC <- STACK_TOP
                      00039 
                      00040 
                      00041 
MPASM 5.55  /USERS/ELIFRIEDMAN/DROPBOX/CPU-M   5-15-2014  3:48:58         PAGE  2


LOC  OBJECT CODE     LINE SOURCE TEXT
  VALUE

                      00042 
                      00043 
                      00044 ;----- Register Files -----------------------------------------------------
  00000070            00045 R0 equ 0x70
  00000071            00046 R1 equ 0x71
  00000072            00047 R2 equ 0x72
  00000073            00048 R3 equ 0x73
  00000074            00049 R4 equ 0x74
  00000075            00050 R5 equ 0x75
  00000076            00051 R6 equ 0x76
  00000077            00052 R7 equ 0x77
  00000078            00053 R8 equ 0x78
  00000079            00054 R9 equ 0x79
  0000007A            00055 R10 equ 0x7A
  0000007B            00056 R11 equ 0x7B
  0000007C            00057 R12 equ 0x7C
  0000007D            00058 R13 equ 0x7D
  0000007E            00059 R14 equ 0x7E ; BANK SELECT register
  0000007F            00060 R15 equ 0x7F ; STATUS register [- - Z C] (bank0)
2007   3F72           00004     __CONFIG _HS_OSC & _WDT_OFF & _PWRTE_ON & _CP_OFF & _LVP_OFF
                      00005 
                      00006 
                      00007 
                      00008     ORG 0x00
0000   1683 1703      00009     banksel EECON1 ; read from EEPROM instead of Flash
Message[302]: Register in operand not in bank 0.  Ensure that bank bits are correct.
0002   138C           00010     bcf     EECON1,EEPGD
0003   1283 1703      00011     banksel EEADR  ; Make sure Program Counter is set to 0
Message[302]: Register in operand not in bank 0.  Ensure that bank bits are correct.
0005   018D           00012     clrf    EEADR
0006   1683 1303      00013     banksel ADCON1 ; set PORTA as input
0008   3006           00014     movlw   0x06
Message[302]: Register in operand not in bank 0.  Ensure that bank bits are correct.
0009   009F           00015     movwf   ADCON1
000A   30FF           00016     movlw   0xFF
Message[302]: Register in operand not in bank 0.  Ensure that bank bits are correct.
000B   0085           00017     movwf   TRISA ; PORTA = result from ALU and Z and C
Message[302]: Register in operand not in bank 0.  Ensure that bank bits are correct.
000C   0186           00018     clrf    TRISB ; PORTB = input to ALU aaaa bbbb
Message[302]: Register in operand not in bank 0.  Ensure that bank bits are correct.
000D   0187           00019     clrf    TRISC ; PORTC = input to ALU instruction select
000E   2???           00020     goto start
                      00021 
                      00022 
                      00023 
                      00024 
000F                  00025 readReg ; Read register, assuming non-offset reg address is in W already
000F   3E70           00026     addlw   R0  ; offset to actual register locations
0010   0084           00027     movwf   FSR ; indirect addressing
0011   0800           00028     movf    INDF,W;
0012   0008           00029     return
                      00030 
0013                  00031 writeReg ; Write to register, assuming non-offset reg address is in W already
MPASM 5.55  /USERS/ELIFRIEDMAN/DROPBOX/CPU-M   5-15-2014  3:48:58         PAGE  3


LOC  OBJECT CODE     LINE SOURCE TEXT
  VALUE

0013   3E70           00032     addlw   R0 ; and value to write is in writeVal
0014   0084           00033     movwf   FSR
Message[302]: Register in operand not in bank 0.  Ensure that bank bits are correct.
0015   0823           00034     movf    writeVal,W;
0016   0080           00035     movwf   INDF
0017   0008           00036     return;
                      00037 
0018                  00038 writeStatus ; sets R15, the Status register [- - Z C]
0018   01FF           00039     clrf    R15
0019   1B05           00040     btfsc   PORTA,CC ;get status from PORTA
001A   147F           00041         bsf   R15,0  ; set C bit
001B   1A85           00042     btfsc   PORTA,ZZ
001C   14FF           00043         bsf   R15,1  ; set Z bit
001D   0008           00044     return
                      00045 
001E                  00046 readInstr ; Read Instruction from EEPROM
                      00047 
                      00048     ; Read from current EEADR
001E   1683 1703      00049     banksel EECON1
Message[302]: Register in operand not in bank 0.  Ensure that bank bits are correct.
0020   140C           00050     bsf     EECON1,RD ; Data ready now.
0021   1283           00051     bcf     STATUS, RP0 ; BANK2
Message[302]: Register in operand not in bank 0.  Ensure that bank bits are correct.
0022   080C           00052     movf        EEDATA, W;
Message[302]: Register in operand not in bank 0.  Ensure that bank bits are correct.
0023   00A1           00053     movwf   INSTR1;
                      00054 
                      00055     ; Read from next EEADR
Message[302]: Register in operand not in bank 0.  Ensure that bank bits are correct.
0024   0A8D           00056     incf    EEADR,F
0025   1683           00057     bsf     STATUS, RP0 ; BANK3
Message[302]: Register in operand not in bank 0.  Ensure that bank bits are correct.
0026   140C           00058     bsf     EECON1,RD ; Data ready now.
0027   1283           00059     bcf     STATUS, RP0 ; BANK2
Message[302]: Register in operand not in bank 0.  Ensure that bank bits are correct.
0028   080C           00060     movf        EEDATA, W;
Message[302]: Register in operand not in bank 0.  Ensure that bank bits are correct.
0029   00A2           00061     movwf   INSTR2;
002A   0008           00062     RETURN
                      00063 
002B                  00064 execInstr ; Execute Instruction
Message[302]: Register in operand not in bank 0.  Ensure that bank bits are correct.
002B   0821           00065     movf    INSTR1,W
002C   39F0           00066     andlw   0xF0    ; extract upper 4 bits = kirt_commands
Message[302]: Register in operand not in bank 0.  Ensure that bank bits are correct.
002D   1FA1           00067     btfss INSTR1, 7; test MSb if set skip zcommands
002E   2???           00068     goto zcomands
                      00069 
                      00070     ;;now test the one_commands
                      00071 
002F                  00072 zcomands ;testing if it's the nop command or if it's rot or ALU
                      00073     ;;the kirtcommands are in w
                      00074 
MPASM 5.55  /USERS/ELIFRIEDMAN/DROPBOX/CPU-M   5-15-2014  3:48:58         PAGE  4


LOC  OBJECT CODE     LINE SOURCE TEXT
  VALUE

002F   3A00           00075     xorlw NOP2 ; xoring will make W=0 and Z=1 if they match
0030   1903           00076     btfsc STATUS,Z
0031   2???           00077     goto start
                      00078 
0032   3A60           00079     xorlw RRL^NOP2 ; :::::: RRL or RRR
0033   1903           00080     btfsc STATUS,Z
0034   2???           00081     goto iRotate
                      00082 
                      00083     ;do ALU COMMANDS
0035   3A60           00084     xorlw RRL; get the commands back to right ALU commands
0036   2???           00085     goto    iALU
                      00086 
0037                  00087 iRotate
                      00088     ;;do rotating commands in ALU;
                      00089 
0037   2???           00090     goto start;
                      00091 
0038                  00092 iALU ; ALU instruction
0038   1283 1303      00093     banksel PORTC
003A   0087           00094     movwf   PORTC; put the comand on PORTC for the ALU
                      00095 
                      00096 ; Write Rc to PORTB<7:4>
003B   1283 1703      00097     banksel INSTR2
Message[302]: Register in operand not in bank 0.  Ensure that bank bits are correct.
003D   0822           00098     movf    INSTR2,W
003E   390F           00099     andlw   0x0F ;
003F   2???           00100     call    readReg ; get Rc
0040   1283 1303      00101     banksel PORTB
0042   0086           00102     movwf   PORTB
0043   0E86           00103     swapf   PORTB,F ; PORTB = cccc0000
                      00104 
                      00105 ; Write Rb to PORTB<3:0>
0044   1283 1703      00106     banksel INSTR2
Message[302]: Register in operand not in bank 0.  Ensure that bank bits are correct.
0046   0EA2           00107     swapf   INSTR2,F
Message[302]: Register in operand not in bank 0.  Ensure that bank bits are correct.
0047   0822           00108     movf    INSTR2,W
0048   390F           00109     andlw   0x0F
0049   2???           00110     call    readReg ; get Rb
004A   1283 1303      00111     banksel PORTB
004C   0486           00112     iorwf   PORTB,F ; PORTB = ccccbbbb
                      00113 
                      00114 ; Get result from ALU
004D   0805           00115     movf    PORTA,W
                      00116 
                      00117 ; Write Z,C
004E   2???           00118     call    writeStatus
                      00119 
                      00120 ; Write to Ra
004F   1283 1703      00121     banksel INSTR1
0051   390F           00122     andlw   0x0F
Message[302]: Register in operand not in bank 0.  Ensure that bank bits are correct.
0052   00A3           00123     movwf   writeVal
MPASM 5.55  /USERS/ELIFRIEDMAN/DROPBOX/CPU-M   5-15-2014  3:48:58         PAGE  5


LOC  OBJECT CODE     LINE SOURCE TEXT
  VALUE

Message[302]: Register in operand not in bank 0.  Ensure that bank bits are correct.
0053   0821           00124     movf    INSTR1,W
0054   390F           00125     andlw   0x0F ; 
                      00126 
0055   2???           00127     call    writeReg ; Ra = Rb + Rc
                      00128     
0056   2???           00129     goto start
                      00130 
                      00131 
0057                  00132 start
0057   2???           00133     call    readInstr
0058   2???           00134     goto    execInstr
0059   2???           00135     goto    start
3F72                  00136     end
MPASM 5.55  /USERS/ELIFRIEDMAN/DROPBOX/CPU-M   5-15-2014  3:48:58         PAGE  6


SYMBOL TABLE
  LABEL                             VALUE 

ACKDT                             00000005
ACKEN                             00000004
ACKSTAT                           00000006
ADCON0                            0000001F
ADCON1                            0000009F
ADCS0                             00000006
ADCS1                             00000007
ADCS2                             00000006
ADD                               00000010
ADDEN                             00000003
ADFM                              00000007
ADIE                              00000006
ADIF                              00000006
ADON                              00000000
ADRESH                            0000001E
ADRESL                            0000009E
ALUcmd                            00000124
AND                               00000030
BCLIE                             00000003
BCLIF                             00000003
BF                                00000000
BRGH                              00000002
C                                 00000000
C1INV                             00000004
C1OUT                             00000006
C2INV                             00000005
C2OUT                             00000007
CC                                00000006
CCP1CON                           00000017
CCP1IE                            00000002
CCP1IF                            00000002
CCP1M0                            00000000
CCP1M1                            00000001
CCP1M2                            00000002
CCP1M3                            00000003
CCP1X                             00000005
CCP1Y                             00000004
CCP2CON                           0000001D
CCP2IE                            00000000
CCP2IF                            00000000
CCP2M0                            00000000
CCP2M1                            00000001
CCP2M2                            00000002
CCP2M3                            00000003
CCP2X                             00000005
CCP2Y                             00000004
CCPR1                             00000015
CCPR1H                            00000016
CCPR1L                            00000015
CCPR2                             0000001B
CCPR2H                            0000001C
CCPR2L                            0000001B
CHS0                              00000003
MPASM 5.55  /USERS/ELIFRIEDMAN/DROPBOX/CPU-M   5-15-2014  3:48:58         PAGE  7


SYMBOL TABLE
  LABEL                             VALUE 

CHS1                              00000004
CHS2                              00000005
CIS                               00000003
CKE                               00000006
CKP                               00000004
CM0                               00000000
CM1                               00000001
CM2                               00000002
CMCON                             0000009C
CMIE                              00000006
CMIF                              00000006
CREN                              00000004
CSRC                              00000007
CVR0                              00000000
CVR1                              00000001
CVR2                              00000002
CVR3                              00000003
CVRCON                            0000009D
CVREN                             00000007
CVROE                             00000006
CVRR                              00000005
D                                 00000005
DATA_ADDRESS                      00000005
DC                                00000001
D_A                               00000005
D_NOT_A                           00000005
EEADR                             0000010D
EEADRH                            0000010F
EECON1                            0000018C
EECON2                            0000018D
EEDATA                            0000010C
EEDATH                            0000010E
EEIE                              00000004
EEIF                              00000004
EEPGD                             00000007
F                                 00000001
FERR                              00000002
FSR                               00000004
GCEN                              00000007
GIE                               00000007
GO                                00000002
GO_DONE                           00000002
GO_NOT_DONE                       00000002
I2C_DATA                          00000005
I2C_READ                          00000002
I2C_START                         00000003
I2C_STOP                          00000004
IBF                               00000007
IBOV                              00000005
INDF                              00000000
INSTR1                            00000121
INSTR2                            00000122
INTCON                            0000000B
MPASM 5.55  /USERS/ELIFRIEDMAN/DROPBOX/CPU-M   5-15-2014  3:48:58         PAGE  8


SYMBOL TABLE
  LABEL                             VALUE 

INTE                              00000004
INTEDG                            00000006
INTF                              00000001
IOR                               00000040
IRP                               00000007
JMP                               000000C0
JSR                               000000D0
LOD                               00000090
MOV                               00000080
NOP2                              00000000
NOT                               00000070
NOT_A                             00000005
NOT_ADDRESS                       00000005
NOT_BO                            00000000
NOT_BOR                           00000000
NOT_DONE                          00000002
NOT_PD                            00000003
NOT_POR                           00000001
NOT_RBPU                          00000007
NOT_RC8                           00000006
NOT_T1SYNC                        00000002
NOT_TO                            00000004
NOT_TX8                           00000006
NOT_W                             00000002
NOT_WRITE                         00000002
OBF                               00000006
OERR                              00000001
OPTION_REG                        00000081
P                                 00000004
PC                                0000010D
PCFG0                             00000000
PCFG1                             00000001
PCFG2                             00000002
PCFG3                             00000003
PCL                               00000002
PCLATH                            0000000A
PCON                              0000008E
PEIE                              00000006
PEN                               00000002
PIE1                              0000008C
PIE2                              0000008D
PIR1                              0000000C
PIR2                              0000000D
PORTA                             00000005
PORTB                             00000006
PORTC                             00000007
PORTD                             00000008
PORTE                             00000009
PR2                               00000092
PS0                               00000000
PS1                               00000001
PS2                               00000002
PSA                               00000003
MPASM 5.55  /USERS/ELIFRIEDMAN/DROPBOX/CPU-M   5-15-2014  3:48:58         PAGE  9


SYMBOL TABLE
  LABEL                             VALUE 

PSPIE                             00000007
PSPIF                             00000007
PSPMODE                           00000004
R                                 00000002
R0                                00000070
R1                                00000071
R10                               0000007A
R11                               0000007B
R12                               0000007C
R13                               0000007D
R14                               0000007E
R15                               0000007F
R2                                00000072
R3                                00000073
R4                                00000074
R5                                00000075
R6                                00000076
R7                                00000077
R8                                00000078
R9                                00000079
RA0                               00000000
RA1                               00000001
RA2                               00000002
RA3                               00000003
RA4                               00000004
RA5                               00000005
RB0                               00000000
RB1                               00000001
RB2                               00000002
RB3                               00000003
RB4                               00000004
RB5                               00000005
RB6                               00000006
RB7                               00000007
RBIE                              00000003
RBIF                              00000000
RC0                               00000000
RC1                               00000001
RC2                               00000002
RC3                               00000003
RC4                               00000004
RC5                               00000005
RC6                               00000006
RC7                               00000007
RC8_9                             00000006
RC9                               00000006
RCD8                              00000000
RCEN                              00000003
RCIE                              00000005
RCIF                              00000005
RCREG                             0000001A
RCSTA                             00000018
RD                                00000000
MPASM 5.55  /USERS/ELIFRIEDMAN/DROPBOX/CPU-M   5-15-2014  3:48:58         PAGE 10


SYMBOL TABLE
  LABEL                             VALUE 

RD0                               00000000
RD1                               00000001
RD2                               00000002
RD3                               00000003
RD4                               00000004
RD5                               00000005
RD6                               00000006
RD7                               00000007
RE0                               00000000
RE1                               00000001
RE2                               00000002
READ_WRITE                        00000002
RET                               000000E0
RP0                               00000005
RP1                               00000006
RRL                               00000060
RRR                               00000060
RSEN                              00000001
RX9                               00000006
RX9D                              00000000
R_NOT_W                           00000002
R_W                               00000002
S                                 00000003
SEN                               00000000
SMP                               00000007
SPBRG                             00000099
SPEN                              00000007
SREN                              00000005
SSPADD                            00000093
SSPBUF                            00000013
SSPCON                            00000014
SSPCON2                           00000091
SSPEN                             00000005
SSPIE                             00000003
SSPIF                             00000003
SSPM0                             00000000
SSPM1                             00000001
SSPM2                             00000002
SSPM3                             00000003
SSPOV                             00000006
SSPSTAT                           00000094
STATUS                            00000003
STO                               000000A0
SUB                               00000020
SYNC                              00000004
T0CS                              00000005
T0IE                              00000005
T0IF                              00000002
T0SE                              00000004
T1CKPS0                           00000004
T1CKPS1                           00000005
T1CON                             00000010
T1INSYNC                          00000002
MPASM 5.55  /USERS/ELIFRIEDMAN/DROPBOX/CPU-M   5-15-2014  3:48:58         PAGE 11


SYMBOL TABLE
  LABEL                             VALUE 

T1OSCEN                           00000003
T1SYNC                            00000002
T2CKPS0                           00000000
T2CKPS1                           00000001
T2CON                             00000012
TMR0                              00000001
TMR0IE                            00000005
TMR0IF                            00000002
TMR1                              0000000E
TMR1CS                            00000001
TMR1H                             0000000F
TMR1IE                            00000000
TMR1IF                            00000000
TMR1L                             0000000E
TMR1ON                            00000000
TMR2                              00000011
TMR2IE                            00000001
TMR2IF                            00000001
TMR2ON                            00000002
TOUTPS0                           00000003
TOUTPS1                           00000004
TOUTPS2                           00000005
TOUTPS3                           00000006
TRISA                             00000085
TRISA0                            00000000
TRISA1                            00000001
TRISA2                            00000002
TRISA3                            00000003
TRISA4                            00000004
TRISA5                            00000005
TRISB                             00000086
TRISB0                            00000000
TRISB1                            00000001
TRISB2                            00000002
TRISB3                            00000003
TRISB4                            00000004
TRISB5                            00000005
TRISB6                            00000006
TRISB7                            00000007
TRISC                             00000087
TRISC0                            00000000
TRISC1                            00000001
TRISC2                            00000002
TRISC3                            00000003
TRISC4                            00000004
TRISC5                            00000005
TRISC6                            00000006
TRISC7                            00000007
TRISD                             00000088
TRISD0                            00000000
TRISD1                            00000001
TRISD2                            00000002
TRISD3                            00000003
MPASM 5.55  /USERS/ELIFRIEDMAN/DROPBOX/CPU-M   5-15-2014  3:48:58         PAGE 12


SYMBOL TABLE
  LABEL                             VALUE 

TRISD4                            00000004
TRISD5                            00000005
TRISD6                            00000006
TRISD7                            00000007
TRISE                             00000089
TRISE0                            00000000
TRISE1                            00000001
TRISE2                            00000002
TRMT                              00000001
TSC                               000000B0
TSS                               000000B0
TX8_9                             00000006
TX9                               00000006
TX9D                              00000000
TXD8                              00000000
TXEN                              00000005
TXIE                              00000004
TXIF                              00000004
TXREG                             00000019
TXSTA                             00000098
UA                                00000001
W                                 00000000
WCOL                              00000007
WR                                00000001
WREN                              00000002
WRERR                             00000003
XOR                               00000050
Z                                 00000002
ZZ                                00000005
_BODEN_OFF                        00003FBF
_BODEN_ON                         00003FFF
_BOREN_OFF                        00003FBF
_BOREN_ON                         00003FFF
_CONFIG                           00002007
_CPD_OFF                          00003FFF
_CPD_ON                           00003EFF
_CP_ALL                           00001FFF
_CP_OFF                           00003FFF
_CP_ON                            00001FFF
_DEBUG_OFF                        00003FFF
_DEBUG_ON                         000037FF
_DEVID1                           00002006
_FOSC_EXTRC                       00003FFF
_FOSC_HS                          00003FFE
_FOSC_LP                          00003FFC
_FOSC_XT                          00003FFD
_HS_OSC                           00003FFE
_IDLOC0                           00002000
_IDLOC1                           00002001
_IDLOC2                           00002002
_IDLOC3                           00002003
_LP_OSC                           00003FFC
_LVP_OFF                          00003F7F
MPASM 5.55  /USERS/ELIFRIEDMAN/DROPBOX/CPU-M   5-15-2014  3:48:58         PAGE 13


SYMBOL TABLE
  LABEL                             VALUE 

_LVP_ON                           00003FFF
_PWRTE_OFF                        00003FFF
_PWRTE_ON                         00003FF7
_RC_OSC                           00003FFF
_WDTE_OFF                         00003FFB
_WDTE_ON                          00003FFF
_WDT_OFF                          00003FFB
_WDT_ON                           00003FFF
_WRT_1FOURTH                      00003BFF
_WRT_256                          00003DFF
_WRT_HALF                         000039FF
_WRT_OFF                          00003FFF
_XT_OSC                           00003FFD
__16F877A                         00000001
execInstr                         0000002B
iALU                              00000038
iRotate                           00000037
readInstr                         0000001E
readReg                           0000000F
start                             00000057
writeReg                          00000013
writeStatus                       00000018
writeVal                          00000123
zcomands                          0000002F

Errors   :     0
Warnings :     0 reported,     0 suppressed
Messages :    21 reported,     0 suppressed

